target datalayout = "e-m:e-p270:32:32-p271:32:32-p272:64:64-i64:64-i128:128-f80:128-n8:16:32:64-S128"
target triple = "x86_64-pc-linux-gnu"

; Function Attrs: nounwind uwtable
define hidden i32 @avifTransferCharacteristicsGetGamma(i16 noundef zeroext %0, ptr noundef %1) #0 {
  %3 = alloca i32, align 4
  %4 = alloca i16, align 2
  %5 = alloca ptr, align 8
  store i16 %0, ptr %4, align 2
  store ptr %1, ptr %5, align 8
  %6 = load i16, ptr %4, align 2
  %7 = zext i16 %6 to i32
  switch i32 %7, label %14 [
    i32 4, label %8
    i32 5, label %10
    i32 8, label %12
  ]

8:                                                ; preds = %2
  %9 = load ptr, ptr %5, align 8
  store float 0x40019999A0000000, ptr %9, align 4
  store i32 0, ptr %3, align 4
  br label %15

10:                                               ; preds = %2
  %11 = load ptr, ptr %5, align 8
  store float 0x4006666660000000, ptr %11, align 4
  store i32 0, ptr %3, align 4
  br label %15

12:                                               ; preds = %2
  %13 = load ptr, ptr %5, align 8
  store float 1.000000e+00, ptr %13, align 4
  store i32 0, ptr %3, align 4
  br label %15

14:                                               ; preds = %2
  store i32 24, ptr %3, align 4
  br label %15

15:                                               ; preds = %14, %12, %10, %8
  %16 = load i32, ptr %3, align 4
  ret i32 %16
}