; Function Attrs: mustprogress nofree norecurse nosync nounwind willreturn memory(argmem: write) uwtable
define hidden range(i32 0, 25) i32 @avifTransferCharacteristicsGetGamma(i16 noundef zeroext %0, ptr nocapture noundef writeonly %1) local_unnamed_addr #2 {
  switch i16 %0, label %5 [
    i16 4, label %.sink.split
    i16 5, label %3
    i16 8, label %4
  ]

3:                                                ; preds = %2
  br label %.sink.split

4:                                                ; preds = %2
  br label %.sink.split

.sink.split:                                      ; preds = %2, %3, %4
  %.sink = phi float [ 1.000000e+00, %4 ], [ 0x4006666660000000, %3 ], [ 0x40019999A0000000, %2 ]
  store float %.sink, ptr %1, align 4
  br label %5

5:                                                ; preds = %.sink.split, %2
  %.0 = phi i32 [ 24, %2 ], [ 0, %.sink.split ]
  ret i32 %.0
}